; Function Attrs: mustprogress nofree norecurse nounwind willreturn memory(readwrite, inaccessiblemem: none) uwtable
define void @_ZNK32pxrInternal_v0_24__pxrReserved__21UsdImagingPrimAdapter16GetScenePrimPathERKNS_7SdfPathEiPSt6vectorISt4pairIS1_iESaIS6_EE(ptr dead_on_unwind noalias nocapture writable writeonly sret(%"class.pxrInternal_v0_24__pxrReserved__::SdfPath") align 4 %0, ptr nocapture nonnull readnone align 8 %1, ptr nocapture noundef nonnull readonly align 4 dereferenceable(8) %2, i32 %3, ptr nocapture readnone %4) unnamed_addr #8 align 2 personality ptr @__gxx_personality_v0 {
  %6 = load i32, ptr %2, align 4
  store i32 %6, ptr %0, align 4
  %.not.i.i = icmp eq i32 %6, 0
  br i1 %.not.i.i, label %_ZN32pxrInternal_v0_24__pxrReserved__7SdfPathC2ERKS0_.exit, label %7

7:                                                ; preds = %5
  %8 = and i32 %6, 255
  %9 = lshr i32 %6, 8
  %10 = zext nneg i32 %8 to i64
  %11 = getelementptr inbounds [257 x ptr], ptr @_ZN32pxrInternal_v0_24__pxrReserved__8Sdf_PoolINS_15Sdf_PathPrimTagELj24ELj8ELj16384EE13_regionStartsE, i64 0, i64 %10
  %12 = load ptr, ptr %11, align 8
  %13 = mul nuw nsw i32 %9, 24
  %14 = zext nneg i32 %13 to i64
  %15 = getelementptr inbounds i8, ptr %12, i64 %14
  %16 = getelementptr inbounds nuw i8, ptr %15, i64 8
  %17 = atomicrmw add ptr %16, i32 1 monotonic, align 4
  br label %_ZN32pxrInternal_v0_24__pxrReserved__7SdfPathC2ERKS0_.exit

_ZN32pxrInternal_v0_24__pxrReserved__7SdfPathC2ERKS0_.exit: ; preds = %5, %7
  %18 = getelementptr inbounds nuw i8, ptr %0, i64 4
  %19 = getelementptr inbounds nuw i8, ptr %2, i64 4
  %20 = load i32, ptr %19, align 4
  store i32 %20, ptr %18, align 4
  ret void
}